(i__main__
Dataset
p0
(dp1
S'train_X'
p2
(lp3
(lp4
S'exporter'
p5
aS'industry'
p6
aS'directory'
p7
aS'China'
p8
aS'supplier'
p9
aS'Taiwan'
p10
aS'merchandise'
p11
aS'manufacturer'
p12
aa(lp13
S'development'
p14
aS'management'
p15
aS'resource'
p16
aS'cognition'
p17
aS'screen'
p18
aS'community'
p19
aS'employee'
p20
aS'compensation'
p21
aS'expertness'
p22
aS'homo'
p23
aS'organizational'
p24
aa(lp25
S'generous'
p26
aS'age-related_macular_degeneration'
p27
aS'undertaking'
p28
aS'custom'
p29
aS'Linux'
p30
aS'position'
p31
aS'contribution'
p32
aS'physics'
p33
aS'chink'
p34
aS'bunch'
p35
aa(lp36
S'development'
p37
aS'simulation'
p38
aS'computer'
p39
aS'Linux'
p40
aS'dynamics'
p41
aS'molecular'
p42
aS'technology'
p43
aS'bunch'
p44
aa(lp45
S'profile'
p46
aS'picture'
p47
aS'star'
p48
aS'recapitulation'
p49
aS'dancing'
p50
aS'update'
p51
aS'community'
p52
aS'scene'
p53
aS'unofficial'
p54
aS'fan'
p55
aS'interview'
p56
aS'news'
p57
aa(lp58
S'dad'
p59
aS'life'
p60
aS'noise'
p61
aS'love'
p62
aS'nag'
p63
aS'grace'
p64
aS'dancing'
p65
aS'Fields'
p66
aS'Singapore'
p67
aS'quiet'
p68
aS'lavender'
p69
aS'nettle'
p70
aS'laugh'
p71
aS'house'
p72
aS'girl'
p73
aS'archive'
p74
aa(lp75
S'search'
p76
aS'family'
p77
aS'grant'
p78
aS'support'
p79
aS'comprehensive_examination'
p80
aS'state'
p81
aS'survey'
p82
aS'subject'
p83
aS'abroad'
p84
aS'scholarship'
p85
aa(lp86
S'education'
p87
aS'force'
p88
aS'air'
p89
aS'mark'
p90
aS'college'
p91
aS'monetary_value'
p92
aS'Reserve_Officers_Training_Corps'
p93
aS'professional'
p94
aS'shadow'
p95
aS'scholarship'
p96
aS'guarantee'
p97
aa(lp98
S'engine'
p99
aS'plant'
p100
aS'power'
p101
aS'jet'
p102
aS'gas'
p103
aS'cruise'
p104
aS'foot'
p105
aS'helicopter'
p106
aS'turbine'
p107
aS'class'
p108
aS'wonder'
p109
aa(lp110
S'engine'
p111
aS'sir'
p112
aS'about'
p113
aS'law'
p114
aS'jet'
p115
aS'Newton'
p116
aS'library'
p117
aS'application'
p118
aS'Isaac'
p119
aS'operate'
p120
aS'physics'
p121
aS'inventor'
p122
aa(lp123
S'information'
p124
aS'life_style'
p125
aS'yoga'
p126
aS'healthy'
p127
aS'calculator'
p128
aS'fitness'
p129
aS'tip'
p130
aS'diet'
p131
aS'keep'
p132
aS'health'
p133
aS'chat'
p134
aS'keyboard'
p135
aS'on-line'
p136
aS'exercise'
p137
aS'discussion'
p138
aa(lp139
S'checkup'
p140
aS'loss'
p141
aS'drink'
p142
aS'liquid'
p143
aS'weight'
p144
aS'purchase'
p145
aS'food'
p146
aS'shingle'
p147
aS'parallel_bars'
p148
aS'diet'
p149
aS'pill'
p150
aS'plan'
p151
aS'addendum'
p152
aS'protein'
p153
aa(lp154
S'gold'
p155
aS'introduction'
p156
aS'university'
p157
aS'Gary'
p158
aS'political'
p159
aS'integration'
p160
aS'Cambridge_University'
p161
aS'catalog'
p162
aS'conflict'
p163
aS'citizen'
p164
aS'Marks'
p165
aS'model'
p166
aS'European'
p167
aS'structure'
p168
aS'union'
p169
aa(lp170
S'commerce'
p171
aS'alliance'
p172
aS'description'
p173
aS'mobility'
p174
aS'university'
p175
aS'Princeton'
p176
aS'political'
p177
aS'trade'
p178
aS'book'
p179
aS'imperativeness'
p180
aS'International'
p181
aS'print'
p182
aS'title'
p183
aS'conflict'
p184
aa(lp185
S'ceremony'
p186
aS'soccer'
p187
aS'hurdles'
p188
aS'Google'
p189
aS'tennis'
p190
aS'shutting'
p191
aS'volleyball'
p192
aS'tae_kwon_do'
p193
aS'synchronize'
p194
aS'game'
p195
aS'gymnastics'
p196
aS'vacation'
p197
aS'Son'
p198
aS'scribble'
p199
aS'weightlift'
p200
aS'swimming'
p201
aa(lp202
S'snowboarding'
p203
aS'snow'
p204
aS'aspect'
p205
aS'covering'
p206
aasS'train_Y'
p207
(lp208
Vbusiness
p209
aVbusiness
p210
aVcomputers
p211
aVcomputers
p212
aVculture-arts-entertainment
p213
aVculture-arts-entertainment
p214
aVeducation-science
p215
aVeducation-science
p216
aVengineering
p217
aVengineering
p218
aVhealth
p219
aVhealth
p220
aVpolitics-society
p221
aVpolitics-society
p222
aVsports
p223
aVsports
p224
asS'labels'
p225
c__builtin__
set
p226
((lp227
Vbusiness
p228
aVcomputers
p229
aVeducation-science
p230
aVculture-arts-entertainment
p231
aVsports
p232
aVengineering
p233
aVhealth
p234
aVpolitics-society
p235
atp236
Rp237
sS'number_of_classes'
p238
I8
sS'samples'
p239
(lp240
sS'test_Y'
p241
(lp242
g232
ag235
ag234
ag233
ag230
ag231
ag229
ag228
asS'test_X'
p243
(lp244
(lp245
S'medium'
p246
aS'mugwump'
p247
aS'season'
p248
aS'football'
p249
aS'cheering'
p250
aS'fan'
p251
aS'news'
p252
aS'article'
p253
aS'kick'
p254
aa(lp255
S'map'
p256
aS'capitol'
p257
aS'district'
p258
aS'home'
p259
aS'telephone'
p260
aS'electronic_mail'
p261
aS'address'
p262
aS'sen'
p263
aS'senator'
p264
aS'page'
p265
aa(lp266
S'advertise'
p267
aS'hypertext_transfer_protocol'
p268
aS'web_log'
p269
aS'electronic_mail'
p270
aa(lp271
S'car'
p272
aS'beloved'
p273
aS'model'
p274
aS'classics'
p275
aS'true'
p276
aS'channel'
p277
aa(lp278
S'web'
p279
aS'educational'
p280
aS'star'
p281
aS'theory'
p282
aS'sun'
p283
aS'quantum'
p284
aS'reappraisal'
p285
aS'historical'
p286
aS'elementary'
p287
aS'aid'
p288
aS'physics'
p289
aS'procedure'
p290
aS'stargaze'
p291
aa(lp292
S'index'
p293
aS'art'
p294
aS'artist'
p295
aS'museum'
p296
aS'surrealism'
p297
aS'history'
p298
aa(lp299
S'sharing'
p300
aS'configure'
p301
aS'Windows'
p302
aS'support'
p303
aS'feature'
p304
aS'client'
p305
aS'connection'
p306
aS'computer'
p307
aS'internet'
p308
aS'host'
p309
aa(lp310
S'chapter'
p311
aS'sell'
p312
aS'selling'
p313
aS'people'
p314
aS'bargain'
p315
aS'catalog'
p316
aS'buying'
p317
aS'paradigm'
p318
aS'market'
p319
aasb.